target datalayout = "e-m:e-p270:32:32-p271:32:32-p272:64:64-i64:64-i128:128-f80:128-n8:16:32:64-S128"
target triple = "x86_64-pc-linux-gnu"

; Function Attrs: nounwind uwtable
define hidden i32 @uv__close_nocancel(i32 noundef %0) #0 {
  %2 = alloca i32, align 4
  store i32 %0, ptr %2, align 4
  %3 = load i32, ptr %2, align 4
  %4 = call i64 (i64, ...) @syscall(i64 noundef 3, i32 noundef %3) #11
  %5 = trunc i64 %4 to i32
  ret i32 %5
}

; Function Attrs: nounwind uwtable
define hidden i32 @uv__close_nocheckstdio(i32 noundef %0) #0 {
  %2 = alloca i32, align 4
  %3 = alloca i32, align 4
  %4 = alloca i32, align 4
  store i32 %0, ptr %2, align 4
  call void @llvm.lifetime.start.p0(i64 4, ptr %3) #11
  call void @llvm.lifetime.start.p0(i64 4, ptr %4) #11
  %5 = call ptr @__errno_location() #12
  %6 = load i32, ptr %5, align 4
  store i32 %6, ptr %3, align 4
  %7 = load i32, ptr %2, align 4
  %8 = call i32 @uv__close_nocancel(i32 noundef %7)
  store i32 %8, ptr %4, align 4
  %9 = load i32, ptr %4, align 4
  %10 = icmp eq i32 %9, -1
  br i1 %10, label %11, label %24

11:                                               ; preds = %1
  %12 = call ptr @__errno_location() #12
  %13 = load i32, ptr %12, align 4
  %14 = sub nsw i32 0, %13
  store i32 %14, ptr %4, align 4
  %15 = load i32, ptr %4, align 4
  %16 = icmp eq i32 %15, -4
  br i1 %16, label %20, label %17

17:                                               ; preds = %11
  %18 = load i32, ptr %4, align 4
  %19 = icmp eq i32 %18, -115
  br i1 %19, label %20, label %21

20:                                               ; preds = %17, %11
  store i32 0, ptr %4, align 4
  br label %21

21:                                               ; preds = %20, %17
  %22 = load i32, ptr %3, align 4
  %23 = call ptr @__errno_location() #12
  store i32 %22, ptr %23, align 4
  br label %24

24:                                               ; preds = %21, %1
  %25 = load i32, ptr %4, align 4
  call void @llvm.lifetime.end.p0(i64 4, ptr %4) #11
  call void @llvm.lifetime.end.p0(i64 4, ptr %3) #11
  ret i32 %25
}

; Function Attrs: nounwind uwtable
define hidden i32 @uv__open_cloexec(ptr noundef %0, i32 noundef %1) #0 {
  %3 = alloca i32, align 4
  %4 = alloca ptr, align 8
  %5 = alloca i32, align 4
  %6 = alloca i32, align 4
  %7 = alloca i32, align 4
  store ptr %0, ptr %4, align 8
  store i32 %1, ptr %5, align 4
  call void @llvm.lifetime.start.p0(i64 4, ptr %6) #11
  %8 = load ptr, ptr %4, align 8
  %9 = load i32, ptr %5, align 4
  %10 = or i32 %9, 524288
  %11 = call i32 (ptr, i32, ...) @open64(ptr noundef %8, i32 noundef %10)
  store i32 %11, ptr %6, align 4
  %12 = load i32, ptr %6, align 4
  %13 = icmp eq i32 %12, -1
  br i1 %13, label %14, label %18

14:                                               ; preds = %2
  %15 = call ptr @__errno_location() #12
  %16 = load i32, ptr %15, align 4
  %17 = sub nsw i32 0, %16
  store i32 %17, ptr %3, align 4
  store i32 1, ptr %7, align 4
  br label %20

18:                                               ; preds = %2
  %19 = load i32, ptr %6, align 4
  store i32 %19, ptr %3, align 4
  store i32 1, ptr %7, align 4
  br label %20

20:                                               ; preds = %18, %14
  call void @llvm.lifetime.end.p0(i64 4, ptr %6) #11
  %21 = load i32, ptr %3, align 4
  ret i32 %21
}

; Function Attrs: nounwind uwtable
define hidden i32 @uv__slurp(ptr noundef %0, ptr noundef %1, i64 noundef %2) #0 {
  %4 = alloca i32, align 4
  %5 = alloca ptr, align 8
  %6 = alloca ptr, align 8
  %7 = alloca i64, align 8
  %8 = alloca i64, align 8
  %9 = alloca i32, align 4
  %10 = alloca i32, align 4
  store ptr %0, ptr %5, align 8
  store ptr %1, ptr %6, align 8
  store i64 %2, ptr %7, align 8
  call void @llvm.lifetime.start.p0(i64 8, ptr %8) #11
  call void @llvm.lifetime.start.p0(i64 4, ptr %9) #11
  %11 = load ptr, ptr %5, align 8
  %12 = call i32 @uv__open_cloexec(ptr noundef %11, i32 noundef 0)
  store i32 %12, ptr %9, align 4
  %13 = load i32, ptr %9, align 4
  %14 = icmp slt i32 %13, 0
  br i1 %14, label %15, label %17

15:                                               ; preds = %3
  %16 = load i32, ptr %9, align 4
  store i32 %16, ptr %4, align 4
  store i32 1, ptr %10, align 4
  br label %49

17:                                               ; preds = %3
  br label %18

18:                                               ; preds = %31, %17
  %19 = load i32, ptr %9, align 4
  %20 = load ptr, ptr %6, align 8
  %21 = load i64, ptr %7, align 8
  %22 = sub i64 %21, 1
  %23 = call i64 @read(i32 noundef %19, ptr noundef %20, i64 noundef %22)
  store i64 %23, ptr %8, align 8
  br label %24

24:                                               ; preds = %18
  %25 = load i64, ptr %8, align 8
  %26 = icmp eq i64 %25, -1
  br i1 %26, label %27, label %31

27:                                               ; preds = %24
  %28 = call ptr @__errno_location() #12
  %29 = load i32, ptr %28, align 4
  %30 = icmp eq i32 %29, 4
  br label %31

31:                                               ; preds = %27, %24
  %32 = phi i1 [ false, %24 ], [ %30, %27 ]
  br i1 %32, label %18, label %33

33:                                               ; preds = %31
  %34 = load i32, ptr %9, align 4
  %35 = call i32 @uv__close_nocheckstdio(i32 noundef %34)
  %36 = icmp ne i32 %35, 0
  br i1 %36, label %37, label %38

37:                                               ; preds = %33
  call void @abort() #14
  unreachable

38:                                               ; preds = %33
  %39 = load i64, ptr %8, align 8
  %40 = icmp slt i64 %39, 0
  br i1 %40, label %41, label %45

41:                                               ; preds = %38
  %42 = call ptr @__errno_location() #12
  %43 = load i32, ptr %42, align 4
  %44 = sub nsw i32 0, %43
  store i32 %44, ptr %4, align 4
  store i32 1, ptr %10, align 4
  br label %49

45:                                               ; preds = %38
  %46 = load ptr, ptr %6, align 8
  %47 = load i64, ptr %8, align 8
  %48 = getelementptr inbounds i8, ptr %46, i64 %47
  store i8 0, ptr %48, align 1
  store i32 0, ptr %4, align 4
  store i32 1, ptr %10, align 4
  br label %49

49:                                               ; preds = %45, %41, %15
  call void @llvm.lifetime.end.p0(i64 4, ptr %9) #11
  call void @llvm.lifetime.end.p0(i64 8, ptr %8) #11
  %50 = load i32, ptr %4, align 4
  ret i32 %50
}