; Function Attrs: nounwind uwtable
define hidden i32 @uv__slurp(ptr noundef readonly captures(none) %0, ptr noundef captures(none) %1, i64 noundef %2) local_unnamed_addr #0 {
  %4 = tail call i32 (ptr, i32, ...) @open64(ptr noundef readonly %0, i32 noundef 524288) #23
  %5 = icmp eq i32 %4, -1
  br i1 %5, label %6, label %uv__open_cloexec.exit

6:                                                ; preds = %3
  %7 = tail call ptr @__errno_location() #24
  %8 = load i32, ptr %7, align 4
  %9 = sub nsw i32 0, %8
  br label %uv__open_cloexec.exit

uv__open_cloexec.exit:                            ; preds = %3, %6
  %.0.i = phi i32 [ %9, %6 ], [ %4, %3 ]
  %10 = icmp slt i32 %.0.i, 0
  br i1 %10, label %33, label %.preheader

.preheader:                                       ; preds = %uv__open_cloexec.exit
  %11 = add i64 %2, -1
  br label %12

12:                                               ; preds = %.preheader, %16
  %13 = tail call i64 @read(i32 noundef %.0.i, ptr noundef %1, i64 noundef %11) #23
  %14 = icmp eq i64 %13, -1
  %15 = tail call ptr @__errno_location() #24
  br i1 %14, label %16, label %.critedge

16:                                               ; preds = %12
  %17 = load i32, ptr %15, align 4
  %18 = icmp eq i32 %17, 4
  br i1 %18, label %12, label %.critedge

.critedge:                                        ; preds = %16, %12
  %19 = load i32, ptr %15, align 4
  %20 = tail call i64 (i64, ...) @syscall(i64 noundef 3, i32 noundef %.0.i) #23
  %21 = trunc i64 %20 to i32
  %22 = icmp eq i32 %21, -1
  br i1 %22, label %23, label %uv__close_nocheckstdio.exit

23:                                               ; preds = %.critedge
  %24 = load i32, ptr %15, align 4
  %25 = sub nsw i32 0, %24
  store i32 %19, ptr %15, align 4
  switch i32 %24, label %uv__close_nocheckstdio.exit [
    i32 115, label %uv__close_nocheckstdio.exit.thread
    i32 4, label %uv__close_nocheckstdio.exit.thread
  ]

uv__close_nocheckstdio.exit:                      ; preds = %23, %.critedge
  %.0.i13 = phi i32 [ %25, %23 ], [ %21, %.critedge ]
  %.not = icmp eq i32 %.0.i13, 0
  br i1 %.not, label %uv__close_nocheckstdio.exit.thread, label %26

26:                                               ; preds = %uv__close_nocheckstdio.exit
  tail call void @abort() #26
  unreachable

uv__close_nocheckstdio.exit.thread:               ; preds = %23, %23, %uv__close_nocheckstdio.exit
  %27 = icmp slt i64 %13, 0
  br i1 %27, label %28, label %31

28:                                               ; preds = %uv__close_nocheckstdio.exit.thread
  %29 = load i32, ptr %15, align 4
  %30 = sub nsw i32 0, %29
  br label %33

31:                                               ; preds = %uv__close_nocheckstdio.exit.thread
  %32 = getelementptr inbounds nuw i8, ptr %1, i64 %13
  store i8 0, ptr %32, align 1
  br label %33

33:                                               ; preds = %uv__open_cloexec.exit, %31, %28
  %.0 = phi i32 [ %30, %28 ], [ 0, %31 ], [ %.0.i, %uv__open_cloexec.exit ]
  ret i32 %.0
}